target datalayout = "e-m:e-p270:32:32-p271:32:32-p272:64:64-i64:64-i128:128-f80:128-n8:16:32:64-S128"
target triple = "x86_64-pc-linux-gnu"

%struct.SN_env = type { ptr, i32, i32, i32, i32, i32, ptr, ptr }

@s_42 = internal constant [2 x i8] c"\CE\B9", align 1

; Function Attrs: nounwind uwtable
define internal i32 @r_steps4(ptr noundef %0) #0 {
  %2 = alloca i32, align 4
  %3 = alloca ptr, align 8
  %4 = alloca i32, align 4
  %5 = alloca i32, align 4
  %6 = alloca i32, align 4
  store ptr %0, ptr %3, align 8
  %7 = load ptr, ptr %3, align 8
  %8 = getelementptr inbounds nuw %struct.SN_env, ptr %7, i32 0, i32 1
  %9 = load i32, ptr %8, align 8
  %10 = load ptr, ptr %3, align 8
  %11 = getelementptr inbounds nuw %struct.SN_env, ptr %10, i32 0, i32 5
  store i32 %9, ptr %11, align 8
  %12 = load ptr, ptr %3, align 8
  %13 = call i32 @find_among_b(ptr noundef %12, ptr noundef @a_9, i32 noundef 7)
  %14 = icmp ne i32 %13, 0
  br i1 %14, label %16, label %15

15:                                               ; preds = %1
  store i32 0, ptr %2, align 4
  br label %110

16:                                               ; preds = %1
  %17 = load ptr, ptr %3, align 8
  %18 = getelementptr inbounds nuw %struct.SN_env, ptr %17, i32 0, i32 1
  %19 = load i32, ptr %18, align 8
  %20 = load ptr, ptr %3, align 8
  %21 = getelementptr inbounds nuw %struct.SN_env, ptr %20, i32 0, i32 4
  store i32 %19, ptr %21, align 4
  call void @llvm.lifetime.start.p0(i64 4, ptr %4) #3
  %22 = load ptr, ptr %3, align 8
  %23 = call i32 @slice_del(ptr noundef %22)
  store i32 %23, ptr %4, align 4
  %24 = load i32, ptr %4, align 4
  %25 = icmp slt i32 %24, 0
  br i1 %25, label %26, label %28

26:                                               ; preds = %16
  %27 = load i32, ptr %4, align 4
  store i32 %27, ptr %2, align 4
  store i32 1, ptr %5, align 4
  br label %29

28:                                               ; preds = %16
  store i32 0, ptr %5, align 4
  br label %29

29:                                               ; preds = %28, %26
  call void @llvm.lifetime.end.p0(i64 4, ptr %4) #3
  %30 = load i32, ptr %5, align 4
  switch i32 %30, label %112 [
    i32 0, label %31
    i32 1, label %110
  ]

31:                                               ; preds = %29
  %32 = load ptr, ptr %3, align 8
  %33 = getelementptr inbounds nuw %struct.SN_env, ptr %32, i32 0, i32 7
  %34 = load ptr, ptr %33, align 8
  %35 = getelementptr inbounds i32, ptr %34, i64 0
  store i32 0, ptr %35, align 4
  %36 = load ptr, ptr %3, align 8
  %37 = getelementptr inbounds nuw %struct.SN_env, ptr %36, i32 0, i32 1
  %38 = load i32, ptr %37, align 8
  %39 = load ptr, ptr %3, align 8
  %40 = getelementptr inbounds nuw %struct.SN_env, ptr %39, i32 0, i32 5
  store i32 %38, ptr %40, align 8
  %41 = load ptr, ptr %3, align 8
  %42 = getelementptr inbounds nuw %struct.SN_env, ptr %41, i32 0, i32 1
  %43 = load i32, ptr %42, align 8
  %44 = load ptr, ptr %3, align 8
  %45 = getelementptr inbounds nuw %struct.SN_env, ptr %44, i32 0, i32 4
  store i32 %43, ptr %45, align 4
  %46 = load ptr, ptr %3, align 8
  %47 = getelementptr inbounds nuw %struct.SN_env, ptr %46, i32 0, i32 1
  %48 = load i32, ptr %47, align 8
  %49 = sub i32 %48, 3
  %50 = load ptr, ptr %3, align 8
  %51 = getelementptr inbounds nuw %struct.SN_env, ptr %50, i32 0, i32 3
  %52 = load i32, ptr %51, align 8
  %53 = icmp sle i32 %49, %52
  br i1 %53, label %84, label %54

54:                                               ; preds = %31
  %55 = load ptr, ptr %3, align 8
  %56 = getelementptr inbounds nuw %struct.SN_env, ptr %55, i32 0, i32 0
  %57 = load ptr, ptr %56, align 8
  %58 = load ptr, ptr %3, align 8
  %59 = getelementptr inbounds nuw %struct.SN_env, ptr %58, i32 0, i32 1
  %60 = load i32, ptr %59, align 8
  %61 = sub i32 %60, 1
  %62 = sext i32 %61 to i64
  %63 = getelementptr inbounds i8, ptr %57, i64 %62
  %64 = load i8, ptr %63, align 1
  %65 = zext i8 %64 to i32
  %66 = ashr i32 %65, 5
  %67 = icmp ne i32 %66, 5
  br i1 %67, label %84, label %68

68:                                               ; preds = %54
  %69 = load ptr, ptr %3, align 8
  %70 = getelementptr inbounds nuw %struct.SN_env, ptr %69, i32 0, i32 0
  %71 = load ptr, ptr %70, align 8
  %72 = load ptr, ptr %3, align 8
  %73 = getelementptr inbounds nuw %struct.SN_env, ptr %72, i32 0, i32 1
  %74 = load i32, ptr %73, align 8
  %75 = sub i32 %74, 1
  %76 = sext i32 %75 to i64
  %77 = getelementptr inbounds i8, ptr %71, i64 %76
  %78 = load i8, ptr %77, align 1
  %79 = zext i8 %78 to i32
  %80 = and i32 %79, 31
  %81 = ashr i32 -2145255424, %80
  %82 = and i32 %81, 1
  %83 = icmp ne i32 %82, 0
  br i1 %83, label %85, label %84

84:                                               ; preds = %68, %54, %31
  store i32 0, ptr %2, align 4
  br label %110

85:                                               ; preds = %68
  %86 = load ptr, ptr %3, align 8
  %87 = call i32 @find_among_b(ptr noundef %86, ptr noundef @a_8, i32 noundef 19)
  %88 = icmp ne i32 %87, 0
  br i1 %88, label %90, label %89

89:                                               ; preds = %85
  store i32 0, ptr %2, align 4
  br label %110

90:                                               ; preds = %85
  %91 = load ptr, ptr %3, align 8
  %92 = getelementptr inbounds nuw %struct.SN_env, ptr %91, i32 0, i32 1
  %93 = load i32, ptr %92, align 8
  %94 = load ptr, ptr %3, align 8
  %95 = getelementptr inbounds nuw %struct.SN_env, ptr %94, i32 0, i32 3
  %96 = load i32, ptr %95, align 8
  %97 = icmp sgt i32 %93, %96
  br i1 %97, label %98, label %99

98:                                               ; preds = %90
  store i32 0, ptr %2, align 4
  br label %110

99:                                               ; preds = %90
  call void @llvm.lifetime.start.p0(i64 4, ptr %6) #3
  %100 = load ptr, ptr %3, align 8
  %101 = call i32 @slice_from_s(ptr noundef %100, i32 noundef 2, ptr noundef @s_42)
  store i32 %101, ptr %6, align 4
  %102 = load i32, ptr %6, align 4
  %103 = icmp slt i32 %102, 0
  br i1 %103, label %104, label %106

104:                                              ; preds = %99
  %105 = load i32, ptr %6, align 4
  store i32 %105, ptr %2, align 4
  store i32 1, ptr %5, align 4
  br label %107

106:                                              ; preds = %99
  store i32 0, ptr %5, align 4
  br label %107

107:                                              ; preds = %106, %104
  call void @llvm.lifetime.end.p0(i64 4, ptr %6) #3
  %108 = load i32, ptr %5, align 4
  switch i32 %108, label %112 [
    i32 0, label %109
    i32 1, label %110
  ]

109:                                              ; preds = %107
  store i32 1, ptr %2, align 4
  br label %110

110:                                              ; preds = %109, %107, %98, %89, %84, %29, %15
  %111 = load i32, ptr %2, align 4
  ret i32 %111

112:                                              ; preds = %107, %29
  unreachable
}