; Function Attrs: nounwind uwtable
define internal fastcc i32 @r_steps4(ptr noundef initializes((24, 28)) %0) unnamed_addr #0 {
  %2 = getelementptr inbounds nuw i8, ptr %0, i64 8
  %3 = load i32, ptr %2, align 8
  %4 = getelementptr inbounds nuw i8, ptr %0, i64 24
  store i32 %3, ptr %4, align 8
  %5 = tail call i32 @find_among_b(ptr noundef %0, ptr noundef nonnull @a_9, i32 noundef 7) #2
  %.not = icmp eq i32 %5, 0
  br i1 %.not, label %38, label %6

6:                                                ; preds = %1
  %7 = load i32, ptr %2, align 8
  %8 = getelementptr inbounds nuw i8, ptr %0, i64 20
  store i32 %7, ptr %8, align 4
  %9 = tail call i32 @slice_del(ptr noundef nonnull %0) #2
  %10 = icmp sgt i32 %9, -1
  br i1 %10, label %11, label %38

11:                                               ; preds = %6
  %12 = getelementptr inbounds nuw i8, ptr %0, i64 40
  %13 = load ptr, ptr %12, align 8
  store i32 0, ptr %13, align 4
  %14 = load i32, ptr %2, align 8
  store i32 %14, ptr %4, align 8
  store i32 %14, ptr %8, align 4
  %15 = add i32 %14, -3
  %16 = getelementptr inbounds nuw i8, ptr %0, i64 16
  %17 = load i32, ptr %16, align 8
  %.not30 = icmp sgt i32 %15, %17
  br i1 %.not30, label %18, label %38

18:                                               ; preds = %11
  %19 = load ptr, ptr %0, align 8
  %20 = add i32 %14, -1
  %21 = sext i32 %20 to i64
  %22 = getelementptr inbounds i8, ptr %19, i64 %21
  %23 = load i8, ptr %22, align 1
  %24 = zext i8 %23 to i32
  %.mask = and i32 %24, 224
  %.not31 = icmp eq i32 %.mask, 160
  br i1 %.not31, label %25, label %38

25:                                               ; preds = %18
  %26 = and i32 %24, 31
  %27 = shl nuw i32 1, %26
  %28 = and i32 %27, -2145255424
  %.not32 = icmp eq i32 %28, 0
  br i1 %.not32, label %38, label %29

29:                                               ; preds = %25
  %30 = tail call i32 @find_among_b(ptr noundef nonnull %0, ptr noundef nonnull @a_8, i32 noundef 19) #2
  %.not33 = icmp eq i32 %30, 0
  br i1 %.not33, label %38, label %31

31:                                               ; preds = %29
  %32 = load i32, ptr %2, align 8
  %33 = load i32, ptr %16, align 8
  %34 = icmp sgt i32 %32, %33
  br i1 %34, label %38, label %35

35:                                               ; preds = %31
  %36 = tail call i32 @slice_from_s(ptr noundef nonnull %0, i32 noundef 2, ptr noundef nonnull @s_42) #2
  %37 = icmp sgt i32 %36, -1
  %spec.select = select i1 %37, i32 1, i32 %36
  br label %38

38:                                               ; preds = %35, %6, %31, %29, %11, %18, %25, %1
  %.0 = phi i32 [ %9, %6 ], [ 0, %1 ], [ 0, %25 ], [ 0, %18 ], [ 0, %11 ], [ 0, %29 ], [ 0, %31 ], [ %spec.select, %35 ]
  ret i32 %.0
}